target datalayout = "e-m:e-p270:32:32-p271:32:32-p272:64:64-i64:64-i128:128-f80:128-n8:16:32:64-S128"
target triple = "x86_64-pc-linux-gnu"

%"class.boost::core::basic_string_view" = type { ptr, i64 }

; Function Attrs: mustprogress nounwind uwtable
define linkonce_odr hidden noundef signext i8 @_ZN5boost4urls7grammar6detail8to_lowerEc(i8 noundef signext %0) #0 comdat {
  %2 = alloca i8, align 1
  store i8 %0, ptr %2, align 1, !tbaa !9
  %3 = load i8, ptr %2, align 1, !tbaa !9
  %4 = sext i8 %3 to i32
  %5 = icmp sge i32 %4, 65
  br i1 %5, label %6, label %15

6:                                                ; preds = %1
  %7 = load i8, ptr %2, align 1, !tbaa !9
  %8 = sext i8 %7 to i32
  %9 = icmp sle i32 %8, 90
  br i1 %9, label %10, label %15

10:                                               ; preds = %6
  %11 = load i8, ptr %2, align 1, !tbaa !9
  %12 = sext i8 %11 to i32
  %13 = add nsw i32 %12, 97
  %14 = sub nsw i32 %13, 65
  br label %18

15:                                               ; preds = %6, %1
  %16 = load i8, ptr %2, align 1, !tbaa !9
  %17 = sext i8 %16 to i32
  br label %18

18:                                               ; preds = %15, %10
  %19 = phi i32 [ %14, %10 ], [ %17, %15 ]
  %20 = trunc i32 %19 to i8
  ret i8 %20
}

; Function Attrs: mustprogress nounwind uwtable
define linkonce_odr hidden noundef ptr @_ZNK5boost4core17basic_string_viewIcE4dataEv(ptr noundef nonnull align 8 dereferenceable(16) %0) #0 comdat align 2 {
  %2 = alloca ptr, align 8
  store ptr %0, ptr %2, align 8, !tbaa !7
  %3 = load ptr, ptr %2, align 8
  %4 = getelementptr inbounds nuw %"class.boost::core::basic_string_view", ptr %3, i32 0, i32 0
  %5 = load ptr, ptr %4, align 8, !tbaa !15
  ret ptr %5
}

; Function Attrs: mustprogress nounwind uwtable
define linkonce_odr hidden noundef i64 @_ZNK5boost4core17basic_string_viewIcE4sizeEv(ptr noundef nonnull align 8 dereferenceable(16) %0) #0 comdat align 2 {
  %2 = alloca ptr, align 8
  store ptr %0, ptr %2, align 8, !tbaa !7
  %3 = load ptr, ptr %2, align 8
  %4 = getelementptr inbounds nuw %"class.boost::core::basic_string_view", ptr %3, i32 0, i32 1
  %5 = load i64, ptr %4, align 8, !tbaa !13
  ret i64 %5
}

; Function Attrs: mustprogress nounwind uwtable
define noundef zeroext i1 @_ZN5boost4urls7grammar6detail11ci_is_equalENS_4core17basic_string_viewIcEES5_(ptr %0, i64 %1, ptr %2, i64 %3) #0 {
  %5 = alloca i1, align 1
  %6 = alloca %"class.boost::core::basic_string_view", align 8
  %7 = alloca %"class.boost::core::basic_string_view", align 8
  %8 = alloca i64, align 8
  %9 = alloca ptr, align 8
  %10 = alloca ptr, align 8
  %11 = alloca i8, align 1
  %12 = alloca i8, align 1
  %13 = alloca i32, align 4
  %14 = getelementptr inbounds nuw { ptr, i64 }, ptr %6, i32 0, i32 0
  store ptr %0, ptr %14, align 8
  %15 = getelementptr inbounds nuw { ptr, i64 }, ptr %6, i32 0, i32 1
  store i64 %1, ptr %15, align 8
  %16 = getelementptr inbounds nuw { ptr, i64 }, ptr %7, i32 0, i32 0
  store ptr %2, ptr %16, align 8
  %17 = getelementptr inbounds nuw { ptr, i64 }, ptr %7, i32 0, i32 1
  store i64 %3, ptr %17, align 8
  call void @llvm.lifetime.start.p0(i64 8, ptr %8) #2
  %18 = call noundef i64 @_ZNK5boost4core17basic_string_viewIcE4sizeEv(ptr noundef nonnull align 8 dereferenceable(16) %6) #2
  store i64 %18, ptr %8, align 8, !tbaa !3
  call void @llvm.lifetime.start.p0(i64 8, ptr %9) #2
  %19 = call noundef ptr @_ZNK5boost4core17basic_string_viewIcE4dataEv(ptr noundef nonnull align 8 dereferenceable(16) %6) #2
  store ptr %19, ptr %9, align 8, !tbaa !7
  call void @llvm.lifetime.start.p0(i64 8, ptr %10) #2
  %20 = call noundef ptr @_ZNK5boost4core17basic_string_viewIcE4dataEv(ptr noundef nonnull align 8 dereferenceable(16) %7) #2
  store ptr %20, ptr %10, align 8, !tbaa !7
  call void @llvm.lifetime.start.p0(i64 1, ptr %11) #2
  call void @llvm.lifetime.start.p0(i64 1, ptr %12) #2
  br label %21

21:                                               ; preds = %38, %4
  %22 = load i64, ptr %8, align 8, !tbaa !3
  %23 = add i64 %22, -1
  store i64 %23, ptr %8, align 8, !tbaa !3
  %24 = icmp ne i64 %22, 0
  br i1 %24, label %25, label %39

25:                                               ; preds = %21
  %26 = load ptr, ptr %9, align 8, !tbaa !7
  %27 = getelementptr inbounds nuw i8, ptr %26, i32 1
  store ptr %27, ptr %9, align 8, !tbaa !7
  %28 = load i8, ptr %26, align 1, !tbaa !9
  store i8 %28, ptr %11, align 1, !tbaa !9
  %29 = load ptr, ptr %10, align 8, !tbaa !7
  %30 = getelementptr inbounds nuw i8, ptr %29, i32 1
  store ptr %30, ptr %10, align 8, !tbaa !7
  %31 = load i8, ptr %29, align 1, !tbaa !9
  store i8 %31, ptr %12, align 1, !tbaa !9
  %32 = load i8, ptr %11, align 1, !tbaa !9
  %33 = sext i8 %32 to i32
  %34 = load i8, ptr %12, align 1, !tbaa !9
  %35 = sext i8 %34 to i32
  %36 = icmp ne i32 %33, %35
  br i1 %36, label %37, label %38

37:                                               ; preds = %25
  br label %40

38:                                               ; preds = %25
  br label %21, !llvm.loop !10

39:                                               ; preds = %21
  store i1 true, ptr %5, align 1
  store i32 1, ptr %13, align 4
  br label %62

40:                                               ; preds = %37
  br label %41

41:                                               ; preds = %57, %40
  %42 = load i8, ptr %11, align 1, !tbaa !9
  %43 = call noundef signext i8 @_ZN5boost4urls7grammar6detail8to_lowerEc(i8 noundef signext %42) #2
  %44 = sext i8 %43 to i32
  %45 = load i8, ptr %12, align 1, !tbaa !9
  %46 = call noundef signext i8 @_ZN5boost4urls7grammar6detail8to_lowerEc(i8 noundef signext %45) #2
  %47 = sext i8 %46 to i32
  %48 = icmp ne i32 %44, %47
  br i1 %48, label %49, label %50

49:                                               ; preds = %41
  store i1 false, ptr %5, align 1
  store i32 1, ptr %13, align 4
  br label %62

50:                                               ; preds = %41
  %51 = load ptr, ptr %9, align 8, !tbaa !7
  %52 = getelementptr inbounds nuw i8, ptr %51, i32 1
  store ptr %52, ptr %9, align 8, !tbaa !7
  %53 = load i8, ptr %51, align 1, !tbaa !9
  store i8 %53, ptr %11, align 1, !tbaa !9
  %54 = load ptr, ptr %10, align 8, !tbaa !7
  %55 = getelementptr inbounds nuw i8, ptr %54, i32 1
  store ptr %55, ptr %10, align 8, !tbaa !7
  %56 = load i8, ptr %54, align 1, !tbaa !9
  store i8 %56, ptr %12, align 1, !tbaa !9
  br label %57

57:                                               ; preds = %50
  %58 = load i64, ptr %8, align 8, !tbaa !3
  %59 = add i64 %58, -1
  store i64 %59, ptr %8, align 8, !tbaa !3
  %60 = icmp ne i64 %58, 0
  br i1 %60, label %41, label %61, !llvm.loop !12

61:                                               ; preds = %57
  store i1 true, ptr %5, align 1
  store i32 1, ptr %13, align 4
  br label %62

62:                                               ; preds = %61, %49, %39
  call void @llvm.lifetime.end.p0(i64 1, ptr %12) #2
  call void @llvm.lifetime.end.p0(i64 1, ptr %11) #2
  call void @llvm.lifetime.end.p0(i64 8, ptr %10) #2
  call void @llvm.lifetime.end.p0(i64 8, ptr %9) #2
  call void @llvm.lifetime.end.p0(i64 8, ptr %8) #2
  %63 = load i1, ptr %5, align 1
  ret i1 %63
}