; Function Attrs: mustprogress nofree norecurse nosync nounwind willreturn memory(argmem: read) uwtable
define noundef zeroext i1 @_ZN5boost4urls7grammar6detail11ci_is_equalENS_4core17basic_string_viewIcEES5_(ptr nocapture readonly %0, i64 %1, ptr nocapture readonly %2, i64 %3) local_unnamed_addr #0 {
  br label %5

5:                                                ; preds = %6, %4
  %.014 = phi i64 [ %1, %4 ], [ %7, %6 ]
  %.012 = phi ptr [ %0, %4 ], [ %8, %6 ]
  %.011 = phi ptr [ %2, %4 ], [ %10, %6 ]
  %.not = icmp eq i64 %.014, 0
  br i1 %.not, label %.loopexit, label %6

6:                                                ; preds = %5
  %7 = add i64 %.014, -1
  %8 = getelementptr inbounds nuw i8, ptr %.012, i64 1
  %9 = load i8, ptr %.012, align 1, !tbaa !3
  %10 = getelementptr inbounds nuw i8, ptr %.011, i64 1
  %11 = load i8, ptr %.011, align 1, !tbaa !3
  %.not17 = icmp eq i8 %9, %11
  br i1 %.not17, label %5, label %.preheader, !llvm.loop !6

.preheader:                                       ; preds = %6, %18
  %.115 = phi i64 [ %23, %18 ], [ %7, %6 ]
  %.113 = phi ptr [ %19, %18 ], [ %8, %6 ]
  %.1 = phi ptr [ %21, %18 ], [ %10, %6 ]
  %.010 = phi i8 [ %20, %18 ], [ %9, %6 ]
  %.0 = phi i8 [ %22, %18 ], [ %11, %6 ]
  %12 = add i8 %.010, -65
  %or.cond.i = icmp ult i8 %12, 26
  %13 = add nuw nsw i8 %.010, 32
  %14 = select i1 %or.cond.i, i8 %13, i8 %.010
  %15 = add i8 %.0, -65
  %or.cond.i20 = icmp ult i8 %15, 26
  %16 = add nuw nsw i8 %.0, 32
  %17 = select i1 %or.cond.i20, i8 %16, i8 %.0
  %.not18 = icmp eq i8 %14, %17
  br i1 %.not18, label %18, label %.loopexit

18:                                               ; preds = %.preheader
  %19 = getelementptr inbounds nuw i8, ptr %.113, i64 1
  %20 = load i8, ptr %.113, align 1, !tbaa !3
  %21 = getelementptr inbounds nuw i8, ptr %.1, i64 1
  %22 = load i8, ptr %.1, align 1, !tbaa !3
  %23 = add i64 %.115, -1
  %.not19 = icmp eq i64 %.115, 0
  br i1 %.not19, label %.loopexit, label %.preheader, !llvm.loop !8

.loopexit:                                        ; preds = %5, %18, %.preheader
  %.016 = phi i1 [ %.not18, %.preheader ], [ %.not18, %18 ], [ true, %5 ]
  ret i1 %.016
}